
rv32mi/bypass.o:     file format elf32-littleriscv


Disassembly of section .text:

00003000 <_start>:
    3000:	00000093          	addi	x1,x0,0
    3004:	00000113          	addi	x2,x0,0
    3008:	00000193          	addi	x3,x0,0
    300c:	00000213          	addi	x4,x0,0
    3010:	00000293          	addi	x5,x0,0
    3014:	00000313          	addi	x6,x0,0
    3018:	00000393          	addi	x7,x0,0
    301c:	00000413          	addi	x8,x0,0
    3020:	00000493          	addi	x9,x0,0
    3024:	00000513          	addi	x10,x0,0
    3028:	00000593          	addi	x11,x0,0
    302c:	00000613          	addi	x12,x0,0
    3030:	00000693          	addi	x13,x0,0
    3034:	00000713          	addi	x14,x0,0
    3038:	00000793          	addi	x15,x0,0
    303c:	00000813          	addi	x16,x0,0
    3040:	00000893          	addi	x17,x0,0
    3044:	00000913          	addi	x18,x0,0
    3048:	00000993          	addi	x19,x0,0
    304c:	00000a13          	addi	x20,x0,0
    3050:	00000a93          	addi	x21,x0,0
    3054:	00000b13          	addi	x22,x0,0
    3058:	00000b93          	addi	x23,x0,0
    305c:	00000c13          	addi	x24,x0,0
    3060:	00000c93          	addi	x25,x0,0
    3064:	00000d13          	addi	x26,x0,0
    3068:	00000d93          	addi	x27,x0,0
    306c:	00000e13          	addi	x28,x0,0
    3070:	00000e93          	addi	x29,x0,0
    3074:	00000f13          	addi	x30,x0,0
    3078:	00000f93          	addi	x31,x0,0
    307c:	00000513          	addi	x10,x0,0
    3080:	00000593          	addi	x11,x0,0

00003084 <test_2>:
    3084:	00000213          	addi	x4,x0,0
    3088:	00d00093          	addi	x1,x0,13
    308c:	00b08713          	addi	x14,x1,11
    3090:	00070313          	addi	x6,x14,0
    3094:	00120213          	addi	x4,x4,1 # 1 <begin_signature+0x1>
    3098:	00200293          	addi	x5,x0,2
    309c:	fe5216e3          	bne	x4,x5,3088 <test_2+0x4>
    30a0:	01800393          	addi	x7,x0,24
    30a4:	00200513          	addi	x10,x0,2
    30a8:	747310e3          	bne	x6,x7,3fe8 <fail>

000030ac <test_3>:
    30ac:	00000213          	addi	x4,x0,0
    30b0:	00d00093          	addi	x1,x0,13
    30b4:	00a08713          	addi	x14,x1,10
    30b8:	00000013          	addi	x0,x0,0
    30bc:	00070313          	addi	x6,x14,0
    30c0:	00120213          	addi	x4,x4,1 # 1 <begin_signature+0x1>
    30c4:	00200293          	addi	x5,x0,2
    30c8:	fe5214e3          	bne	x4,x5,30b0 <test_3+0x4>
    30cc:	01700393          	addi	x7,x0,23
    30d0:	00300513          	addi	x10,x0,3
    30d4:	70731ae3          	bne	x6,x7,3fe8 <fail>

000030d8 <test_4>:
    30d8:	00000213          	addi	x4,x0,0
    30dc:	00d00093          	addi	x1,x0,13
    30e0:	00908713          	addi	x14,x1,9
    30e4:	00000013          	addi	x0,x0,0
    30e8:	00000013          	addi	x0,x0,0
    30ec:	00070313          	addi	x6,x14,0
    30f0:	00120213          	addi	x4,x4,1 # 1 <begin_signature+0x1>
    30f4:	00200293          	addi	x5,x0,2
    30f8:	fe5212e3          	bne	x4,x5,30dc <test_4+0x4>
    30fc:	01600393          	addi	x7,x0,22
    3100:	00400513          	addi	x10,x0,4
    3104:	6e7312e3          	bne	x6,x7,3fe8 <fail>

00003108 <test_5>:
    3108:	00000213          	addi	x4,x0,0
    310c:	00d00093          	addi	x1,x0,13
    3110:	00b08713          	addi	x14,x1,11
    3114:	00120213          	addi	x4,x4,1 # 1 <begin_signature+0x1>
    3118:	00200293          	addi	x5,x0,2
    311c:	fe5218e3          	bne	x4,x5,310c <test_5+0x4>
    3120:	01800393          	addi	x7,x0,24
    3124:	00500513          	addi	x10,x0,5
    3128:	6c7710e3          	bne	x14,x7,3fe8 <fail>

0000312c <test_6>:
    312c:	00000213          	addi	x4,x0,0
    3130:	00d00093          	addi	x1,x0,13
    3134:	00000013          	addi	x0,x0,0
    3138:	00a08713          	addi	x14,x1,10
    313c:	00120213          	addi	x4,x4,1 # 1 <begin_signature+0x1>
    3140:	00200293          	addi	x5,x0,2
    3144:	fe5216e3          	bne	x4,x5,3130 <test_6+0x4>
    3148:	01700393          	addi	x7,x0,23
    314c:	00600513          	addi	x10,x0,6
    3150:	68771ce3          	bne	x14,x7,3fe8 <fail>

00003154 <test_7>:
    3154:	00000213          	addi	x4,x0,0
    3158:	00d00093          	addi	x1,x0,13
    315c:	00000013          	addi	x0,x0,0
    3160:	00000013          	addi	x0,x0,0
    3164:	00908713          	addi	x14,x1,9
    3168:	00120213          	addi	x4,x4,1 # 1 <begin_signature+0x1>
    316c:	00200293          	addi	x5,x0,2
    3170:	fe5214e3          	bne	x4,x5,3158 <test_7+0x4>
    3174:	01600393          	addi	x7,x0,22
    3178:	00700513          	addi	x10,x0,7
    317c:	667716e3          	bne	x14,x7,3fe8 <fail>

00003180 <test_8>:
    3180:	00000213          	addi	x4,x0,0
    3184:	00d00093          	addi	x1,x0,13
    3188:	00b00113          	addi	x2,x0,11
    318c:	00208733          	add	x14,x1,x2
    3190:	00070313          	addi	x6,x14,0
    3194:	00120213          	addi	x4,x4,1 # 1 <begin_signature+0x1>
    3198:	00200293          	addi	x5,x0,2
    319c:	fe5214e3          	bne	x4,x5,3184 <test_8+0x4>
    31a0:	01800393          	addi	x7,x0,24
    31a4:	00800513          	addi	x10,x0,8
    31a8:	647310e3          	bne	x6,x7,3fe8 <fail>

000031ac <test_9>:
    31ac:	00000213          	addi	x4,x0,0
    31b0:	00e00093          	addi	x1,x0,14
    31b4:	00b00113          	addi	x2,x0,11
    31b8:	00208733          	add	x14,x1,x2
    31bc:	00000013          	addi	x0,x0,0
    31c0:	00070313          	addi	x6,x14,0
    31c4:	00120213          	addi	x4,x4,1 # 1 <begin_signature+0x1>
    31c8:	00200293          	addi	x5,x0,2
    31cc:	fe5212e3          	bne	x4,x5,31b0 <test_9+0x4>
    31d0:	01900393          	addi	x7,x0,25
    31d4:	00900513          	addi	x10,x0,9
    31d8:	607318e3          	bne	x6,x7,3fe8 <fail>

000031dc <test_10>:
    31dc:	00000213          	addi	x4,x0,0
    31e0:	00f00093          	addi	x1,x0,15
    31e4:	00b00113          	addi	x2,x0,11
    31e8:	00208733          	add	x14,x1,x2
    31ec:	00000013          	addi	x0,x0,0
    31f0:	00000013          	addi	x0,x0,0
    31f4:	00070313          	addi	x6,x14,0
    31f8:	00120213          	addi	x4,x4,1 # 1 <begin_signature+0x1>
    31fc:	00200293          	addi	x5,x0,2
    3200:	fe5210e3          	bne	x4,x5,31e0 <test_10+0x4>
    3204:	01a00393          	addi	x7,x0,26
    3208:	00a00513          	addi	x10,x0,10
    320c:	5c731ee3          	bne	x6,x7,3fe8 <fail>

00003210 <test_11>:
    3210:	00b00513          	addi	x10,x0,11
    3214:	00000213          	addi	x4,x0,0
    3218:	00000093          	addi	x1,x0,0
    321c:	00000113          	addi	x2,x0,0
    3220:	5c2094e3          	bne	x1,x2,3fe8 <fail>
    3224:	00120213          	addi	x4,x4,1 # 1 <begin_signature+0x1>
    3228:	00200293          	addi	x5,x0,2
    322c:	fe5216e3          	bne	x4,x5,3218 <test_11+0x8>

00003230 <test_12>:
    3230:	00c00513          	addi	x10,x0,12
    3234:	00000213          	addi	x4,x0,0
    3238:	00000093          	addi	x1,x0,0
    323c:	00000113          	addi	x2,x0,0
    3240:	00000013          	addi	x0,x0,0
    3244:	5a2092e3          	bne	x1,x2,3fe8 <fail>
    3248:	00120213          	addi	x4,x4,1 # 1 <begin_signature+0x1>
    324c:	00200293          	addi	x5,x0,2
    3250:	fe5214e3          	bne	x4,x5,3238 <test_12+0x8>

00003254 <test_13>:
    3254:	00d00513          	addi	x10,x0,13
    3258:	00000213          	addi	x4,x0,0
    325c:	00000093          	addi	x1,x0,0
    3260:	00000113          	addi	x2,x0,0
    3264:	00000013          	addi	x0,x0,0
    3268:	00000013          	addi	x0,x0,0
    326c:	56209ee3          	bne	x1,x2,3fe8 <fail>
    3270:	00120213          	addi	x4,x4,1 # 1 <begin_signature+0x1>
    3274:	00200293          	addi	x5,x0,2
    3278:	fe5212e3          	bne	x4,x5,325c <test_13+0x8>

0000327c <test_14>:
    327c:	00e00513          	addi	x10,x0,14
    3280:	00000213          	addi	x4,x0,0
    3284:	00000093          	addi	x1,x0,0
    3288:	00000013          	addi	x0,x0,0
    328c:	00000113          	addi	x2,x0,0
    3290:	54209ce3          	bne	x1,x2,3fe8 <fail>
    3294:	00120213          	addi	x4,x4,1 # 1 <begin_signature+0x1>
    3298:	00200293          	addi	x5,x0,2
    329c:	fe5214e3          	bne	x4,x5,3284 <test_14+0x8>

000032a0 <test_15>:
    32a0:	00f00513          	addi	x10,x0,15
    32a4:	00000213          	addi	x4,x0,0
    32a8:	00000093          	addi	x1,x0,0
    32ac:	00000013          	addi	x0,x0,0
    32b0:	00000113          	addi	x2,x0,0
    32b4:	00000013          	addi	x0,x0,0
    32b8:	522098e3          	bne	x1,x2,3fe8 <fail>
    32bc:	00120213          	addi	x4,x4,1 # 1 <begin_signature+0x1>
    32c0:	00200293          	addi	x5,x0,2
    32c4:	fe5212e3          	bne	x4,x5,32a8 <test_15+0x8>

000032c8 <test_16>:
    32c8:	01000513          	addi	x10,x0,16
    32cc:	00000213          	addi	x4,x0,0
    32d0:	00000093          	addi	x1,x0,0
    32d4:	00000013          	addi	x0,x0,0
    32d8:	00000013          	addi	x0,x0,0
    32dc:	00000113          	addi	x2,x0,0
    32e0:	502094e3          	bne	x1,x2,3fe8 <fail>
    32e4:	00120213          	addi	x4,x4,1 # 1 <begin_signature+0x1>
    32e8:	00200293          	addi	x5,x0,2
    32ec:	fe5212e3          	bne	x4,x5,32d0 <test_16+0x8>

000032f0 <test_17>:
    32f0:	01100513          	addi	x10,x0,17
    32f4:	00000213          	addi	x4,x0,0
    32f8:	00000093          	addi	x1,x0,0
    32fc:	00000113          	addi	x2,x0,0
    3300:	4e2094e3          	bne	x1,x2,3fe8 <fail>
    3304:	00120213          	addi	x4,x4,1 # 1 <begin_signature+0x1>
    3308:	00200293          	addi	x5,x0,2
    330c:	fe5216e3          	bne	x4,x5,32f8 <test_17+0x8>

00003310 <test_18>:
    3310:	01200513          	addi	x10,x0,18
    3314:	00000213          	addi	x4,x0,0
    3318:	00000093          	addi	x1,x0,0
    331c:	00000113          	addi	x2,x0,0
    3320:	00000013          	addi	x0,x0,0
    3324:	4c2092e3          	bne	x1,x2,3fe8 <fail>
    3328:	00120213          	addi	x4,x4,1 # 1 <begin_signature+0x1>
    332c:	00200293          	addi	x5,x0,2
    3330:	fe5214e3          	bne	x4,x5,3318 <test_18+0x8>

00003334 <test_19>:
    3334:	01300513          	addi	x10,x0,19
    3338:	00000213          	addi	x4,x0,0
    333c:	00000093          	addi	x1,x0,0
    3340:	00000113          	addi	x2,x0,0
    3344:	00000013          	addi	x0,x0,0
    3348:	00000013          	addi	x0,x0,0
    334c:	48209ee3          	bne	x1,x2,3fe8 <fail>
    3350:	00120213          	addi	x4,x4,1 # 1 <begin_signature+0x1>
    3354:	00200293          	addi	x5,x0,2
    3358:	fe5212e3          	bne	x4,x5,333c <test_19+0x8>

0000335c <test_20>:
    335c:	01400513          	addi	x10,x0,20
    3360:	00000213          	addi	x4,x0,0
    3364:	00000093          	addi	x1,x0,0
    3368:	00000013          	addi	x0,x0,0
    336c:	00000113          	addi	x2,x0,0
    3370:	46209ce3          	bne	x1,x2,3fe8 <fail>
    3374:	00120213          	addi	x4,x4,1 # 1 <begin_signature+0x1>
    3378:	00200293          	addi	x5,x0,2
    337c:	fe5214e3          	bne	x4,x5,3364 <test_20+0x8>

00003380 <test_21>:
    3380:	01500513          	addi	x10,x0,21
    3384:	00000213          	addi	x4,x0,0
    3388:	00000093          	addi	x1,x0,0
    338c:	00000013          	addi	x0,x0,0
    3390:	00000113          	addi	x2,x0,0
    3394:	00000013          	addi	x0,x0,0
    3398:	442098e3          	bne	x1,x2,3fe8 <fail>
    339c:	00120213          	addi	x4,x4,1 # 1 <begin_signature+0x1>
    33a0:	00200293          	addi	x5,x0,2
    33a4:	fe5212e3          	bne	x4,x5,3388 <test_21+0x8>

000033a8 <test_22>:
    33a8:	01600513          	addi	x10,x0,22
    33ac:	00000213          	addi	x4,x0,0
    33b0:	00000093          	addi	x1,x0,0
    33b4:	00000013          	addi	x0,x0,0
    33b8:	00000013          	addi	x0,x0,0
    33bc:	00000113          	addi	x2,x0,0
    33c0:	422094e3          	bne	x1,x2,3fe8 <fail>
    33c4:	00120213          	addi	x4,x4,1 # 1 <begin_signature+0x1>
    33c8:	00200293          	addi	x5,x0,2
    33cc:	fe5212e3          	bne	x4,x5,33b0 <test_22+0x8>

000033d0 <test_23>:
    33d0:	01700513          	addi	x10,x0,23
    33d4:	00000213          	addi	x4,x0,0
    33d8:	00000093          	addi	x1,x0,0
    33dc:	fff00113          	addi	x2,x0,-1
    33e0:	402084e3          	beq	x1,x2,3fe8 <fail>
    33e4:	00120213          	addi	x4,x4,1 # 1 <begin_signature+0x1>
    33e8:	00200293          	addi	x5,x0,2
    33ec:	fe5216e3          	bne	x4,x5,33d8 <test_23+0x8>

000033f0 <test_24>:
    33f0:	01800513          	addi	x10,x0,24
    33f4:	00000213          	addi	x4,x0,0
    33f8:	00000093          	addi	x1,x0,0
    33fc:	fff00113          	addi	x2,x0,-1
    3400:	00000013          	addi	x0,x0,0
    3404:	3e2082e3          	beq	x1,x2,3fe8 <fail>
    3408:	00120213          	addi	x4,x4,1 # 1 <begin_signature+0x1>
    340c:	00200293          	addi	x5,x0,2
    3410:	fe5214e3          	bne	x4,x5,33f8 <test_24+0x8>

00003414 <test_25>:
    3414:	01900513          	addi	x10,x0,25
    3418:	00000213          	addi	x4,x0,0
    341c:	00000093          	addi	x1,x0,0
    3420:	fff00113          	addi	x2,x0,-1
    3424:	00000013          	addi	x0,x0,0
    3428:	00000013          	addi	x0,x0,0
    342c:	3a208ee3          	beq	x1,x2,3fe8 <fail>
    3430:	00120213          	addi	x4,x4,1 # 1 <begin_signature+0x1>
    3434:	00200293          	addi	x5,x0,2
    3438:	fe5212e3          	bne	x4,x5,341c <test_25+0x8>

0000343c <test_26>:
    343c:	01a00513          	addi	x10,x0,26
    3440:	00000213          	addi	x4,x0,0
    3444:	00000093          	addi	x1,x0,0
    3448:	00000013          	addi	x0,x0,0
    344c:	fff00113          	addi	x2,x0,-1
    3450:	38208ce3          	beq	x1,x2,3fe8 <fail>
    3454:	00120213          	addi	x4,x4,1 # 1 <begin_signature+0x1>
    3458:	00200293          	addi	x5,x0,2
    345c:	fe5214e3          	bne	x4,x5,3444 <test_26+0x8>

00003460 <test_27>:
    3460:	01b00513          	addi	x10,x0,27
    3464:	00000213          	addi	x4,x0,0
    3468:	00000093          	addi	x1,x0,0
    346c:	00000013          	addi	x0,x0,0
    3470:	fff00113          	addi	x2,x0,-1
    3474:	00000013          	addi	x0,x0,0
    3478:	362088e3          	beq	x1,x2,3fe8 <fail>
    347c:	00120213          	addi	x4,x4,1 # 1 <begin_signature+0x1>
    3480:	00200293          	addi	x5,x0,2
    3484:	fe5212e3          	bne	x4,x5,3468 <test_27+0x8>

00003488 <test_28>:
    3488:	01c00513          	addi	x10,x0,28
    348c:	00000213          	addi	x4,x0,0
    3490:	00000093          	addi	x1,x0,0
    3494:	00000013          	addi	x0,x0,0
    3498:	00000013          	addi	x0,x0,0
    349c:	fff00113          	addi	x2,x0,-1
    34a0:	342084e3          	beq	x1,x2,3fe8 <fail>
    34a4:	00120213          	addi	x4,x4,1 # 1 <begin_signature+0x1>
    34a8:	00200293          	addi	x5,x0,2
    34ac:	fe5212e3          	bne	x4,x5,3490 <test_28+0x8>

000034b0 <test_29>:
    34b0:	01d00513          	addi	x10,x0,29
    34b4:	00000213          	addi	x4,x0,0
    34b8:	00000093          	addi	x1,x0,0
    34bc:	fff00113          	addi	x2,x0,-1
    34c0:	322084e3          	beq	x1,x2,3fe8 <fail>
    34c4:	00120213          	addi	x4,x4,1 # 1 <begin_signature+0x1>
    34c8:	00200293          	addi	x5,x0,2
    34cc:	fe5216e3          	bne	x4,x5,34b8 <test_29+0x8>

000034d0 <test_30>:
    34d0:	01e00513          	addi	x10,x0,30
    34d4:	00000213          	addi	x4,x0,0
    34d8:	00000093          	addi	x1,x0,0
    34dc:	fff00113          	addi	x2,x0,-1
    34e0:	00000013          	addi	x0,x0,0
    34e4:	302082e3          	beq	x1,x2,3fe8 <fail>
    34e8:	00120213          	addi	x4,x4,1 # 1 <begin_signature+0x1>
    34ec:	00200293          	addi	x5,x0,2
    34f0:	fe5214e3          	bne	x4,x5,34d8 <test_30+0x8>

000034f4 <test_31>:
    34f4:	01f00513          	addi	x10,x0,31
    34f8:	00000213          	addi	x4,x0,0
    34fc:	00000093          	addi	x1,x0,0
    3500:	fff00113          	addi	x2,x0,-1
    3504:	00000013          	addi	x0,x0,0
    3508:	00000013          	addi	x0,x0,0
    350c:	2c208ee3          	beq	x1,x2,3fe8 <fail>
    3510:	00120213          	addi	x4,x4,1 # 1 <begin_signature+0x1>
    3514:	00200293          	addi	x5,x0,2
    3518:	fe5212e3          	bne	x4,x5,34fc <test_31+0x8>

0000351c <test_32>:
    351c:	02000513          	addi	x10,x0,32
    3520:	00000213          	addi	x4,x0,0
    3524:	00000093          	addi	x1,x0,0
    3528:	00000013          	addi	x0,x0,0
    352c:	fff00113          	addi	x2,x0,-1
    3530:	2a208ce3          	beq	x1,x2,3fe8 <fail>
    3534:	00120213          	addi	x4,x4,1 # 1 <begin_signature+0x1>
    3538:	00200293          	addi	x5,x0,2
    353c:	fe5214e3          	bne	x4,x5,3524 <test_32+0x8>

00003540 <test_33>:
    3540:	02100513          	addi	x10,x0,33
    3544:	00000213          	addi	x4,x0,0
    3548:	00000093          	addi	x1,x0,0
    354c:	00000013          	addi	x0,x0,0
    3550:	fff00113          	addi	x2,x0,-1
    3554:	00000013          	addi	x0,x0,0
    3558:	282088e3          	beq	x1,x2,3fe8 <fail>
    355c:	00120213          	addi	x4,x4,1 # 1 <begin_signature+0x1>
    3560:	00200293          	addi	x5,x0,2
    3564:	fe5212e3          	bne	x4,x5,3548 <test_33+0x8>

00003568 <test_34>:
    3568:	02200513          	addi	x10,x0,34
    356c:	00000213          	addi	x4,x0,0
    3570:	00000093          	addi	x1,x0,0
    3574:	00000013          	addi	x0,x0,0
    3578:	00000013          	addi	x0,x0,0
    357c:	fff00113          	addi	x2,x0,-1
    3580:	262084e3          	beq	x1,x2,3fe8 <fail>
    3584:	00120213          	addi	x4,x4,1 # 1 <begin_signature+0x1>
    3588:	00200293          	addi	x5,x0,2
    358c:	fe5212e3          	bne	x4,x5,3570 <test_34+0x8>

00003590 <test_35>:
    3590:	02300513          	addi	x10,x0,35
    3594:	00000213          	addi	x4,x0,0
    3598:	00000093          	addi	x1,x0,0
    359c:	fff00113          	addi	x2,x0,-1
    35a0:	2420c4e3          	blt	x1,x2,3fe8 <fail>
    35a4:	00120213          	addi	x4,x4,1 # 1 <begin_signature+0x1>
    35a8:	00200293          	addi	x5,x0,2
    35ac:	fe5216e3          	bne	x4,x5,3598 <test_35+0x8>

000035b0 <test_36>:
    35b0:	02400513          	addi	x10,x0,36
    35b4:	00000213          	addi	x4,x0,0
    35b8:	00000093          	addi	x1,x0,0
    35bc:	fff00113          	addi	x2,x0,-1
    35c0:	00000013          	addi	x0,x0,0
    35c4:	2220c2e3          	blt	x1,x2,3fe8 <fail>
    35c8:	00120213          	addi	x4,x4,1 # 1 <begin_signature+0x1>
    35cc:	00200293          	addi	x5,x0,2
    35d0:	fe5214e3          	bne	x4,x5,35b8 <test_36+0x8>

000035d4 <test_37>:
    35d4:	02500513          	addi	x10,x0,37
    35d8:	00000213          	addi	x4,x0,0
    35dc:	00000093          	addi	x1,x0,0
    35e0:	fff00113          	addi	x2,x0,-1
    35e4:	00000013          	addi	x0,x0,0
    35e8:	00000013          	addi	x0,x0,0
    35ec:	1e20cee3          	blt	x1,x2,3fe8 <fail>
    35f0:	00120213          	addi	x4,x4,1 # 1 <begin_signature+0x1>
    35f4:	00200293          	addi	x5,x0,2
    35f8:	fe5212e3          	bne	x4,x5,35dc <test_37+0x8>

000035fc <test_38>:
    35fc:	02600513          	addi	x10,x0,38
    3600:	00000213          	addi	x4,x0,0
    3604:	00000093          	addi	x1,x0,0
    3608:	00000013          	addi	x0,x0,0
    360c:	fff00113          	addi	x2,x0,-1
    3610:	1c20cce3          	blt	x1,x2,3fe8 <fail>
    3614:	00120213          	addi	x4,x4,1 # 1 <begin_signature+0x1>
    3618:	00200293          	addi	x5,x0,2
    361c:	fe5214e3          	bne	x4,x5,3604 <test_38+0x8>

00003620 <test_39>:
    3620:	02700513          	addi	x10,x0,39
    3624:	00000213          	addi	x4,x0,0
    3628:	00000093          	addi	x1,x0,0
    362c:	00000013          	addi	x0,x0,0
    3630:	fff00113          	addi	x2,x0,-1
    3634:	00000013          	addi	x0,x0,0
    3638:	1a20c8e3          	blt	x1,x2,3fe8 <fail>
    363c:	00120213          	addi	x4,x4,1 # 1 <begin_signature+0x1>
    3640:	00200293          	addi	x5,x0,2
    3644:	fe5212e3          	bne	x4,x5,3628 <test_39+0x8>

00003648 <test_40>:
    3648:	02800513          	addi	x10,x0,40
    364c:	00000213          	addi	x4,x0,0
    3650:	00000093          	addi	x1,x0,0
    3654:	00000013          	addi	x0,x0,0
    3658:	00000013          	addi	x0,x0,0
    365c:	fff00113          	addi	x2,x0,-1
    3660:	1820c4e3          	blt	x1,x2,3fe8 <fail>
    3664:	00120213          	addi	x4,x4,1 # 1 <begin_signature+0x1>
    3668:	00200293          	addi	x5,x0,2
    366c:	fe5212e3          	bne	x4,x5,3650 <test_40+0x8>

00003670 <test_41>:
    3670:	02900513          	addi	x10,x0,41
    3674:	00000213          	addi	x4,x0,0
    3678:	00000093          	addi	x1,x0,0
    367c:	fff00113          	addi	x2,x0,-1
    3680:	1620c4e3          	blt	x1,x2,3fe8 <fail>
    3684:	00120213          	addi	x4,x4,1 # 1 <begin_signature+0x1>
    3688:	00200293          	addi	x5,x0,2
    368c:	fe5216e3          	bne	x4,x5,3678 <test_41+0x8>

00003690 <test_42>:
    3690:	02a00513          	addi	x10,x0,42
    3694:	00000213          	addi	x4,x0,0
    3698:	00000093          	addi	x1,x0,0
    369c:	fff00113          	addi	x2,x0,-1
    36a0:	00000013          	addi	x0,x0,0
    36a4:	1420c2e3          	blt	x1,x2,3fe8 <fail>
    36a8:	00120213          	addi	x4,x4,1 # 1 <begin_signature+0x1>
    36ac:	00200293          	addi	x5,x0,2
    36b0:	fe5214e3          	bne	x4,x5,3698 <test_42+0x8>

000036b4 <test_43>:
    36b4:	02b00513          	addi	x10,x0,43
    36b8:	00000213          	addi	x4,x0,0
    36bc:	00000093          	addi	x1,x0,0
    36c0:	fff00113          	addi	x2,x0,-1
    36c4:	00000013          	addi	x0,x0,0
    36c8:	00000013          	addi	x0,x0,0
    36cc:	1020cee3          	blt	x1,x2,3fe8 <fail>
    36d0:	00120213          	addi	x4,x4,1 # 1 <begin_signature+0x1>
    36d4:	00200293          	addi	x5,x0,2
    36d8:	fe5212e3          	bne	x4,x5,36bc <test_43+0x8>

000036dc <test_44>:
    36dc:	02c00513          	addi	x10,x0,44
    36e0:	00000213          	addi	x4,x0,0
    36e4:	00000093          	addi	x1,x0,0
    36e8:	00000013          	addi	x0,x0,0
    36ec:	fff00113          	addi	x2,x0,-1
    36f0:	0e20cce3          	blt	x1,x2,3fe8 <fail>
    36f4:	00120213          	addi	x4,x4,1 # 1 <begin_signature+0x1>
    36f8:	00200293          	addi	x5,x0,2
    36fc:	fe5214e3          	bne	x4,x5,36e4 <test_44+0x8>

00003700 <test_45>:
    3700:	02d00513          	addi	x10,x0,45
    3704:	00000213          	addi	x4,x0,0
    3708:	00000093          	addi	x1,x0,0
    370c:	00000013          	addi	x0,x0,0
    3710:	fff00113          	addi	x2,x0,-1
    3714:	00000013          	addi	x0,x0,0
    3718:	0c20c8e3          	blt	x1,x2,3fe8 <fail>
    371c:	00120213          	addi	x4,x4,1 # 1 <begin_signature+0x1>
    3720:	00200293          	addi	x5,x0,2
    3724:	fe5212e3          	bne	x4,x5,3708 <test_45+0x8>

00003728 <test_46>:
    3728:	02e00513          	addi	x10,x0,46
    372c:	00000213          	addi	x4,x0,0
    3730:	00000093          	addi	x1,x0,0
    3734:	00000013          	addi	x0,x0,0
    3738:	00000013          	addi	x0,x0,0
    373c:	fff00113          	addi	x2,x0,-1
    3740:	0a20c4e3          	blt	x1,x2,3fe8 <fail>
    3744:	00120213          	addi	x4,x4,1 # 1 <begin_signature+0x1>
    3748:	00200293          	addi	x5,x0,2
    374c:	fe5212e3          	bne	x4,x5,3730 <test_46+0x8>

00003750 <test_47>:
    3750:	02f00513          	addi	x10,x0,47
    3754:	00000213          	addi	x4,x0,0
    3758:	00000317          	auipc	x6,0x0
    375c:	01030313          	addi	x6,x6,16 # 3768 <test_47+0x18>
    3760:	000306e7          	jalr	x13,0(x6)
    3764:	08a012e3          	bne	x0,x10,3fe8 <fail>
    3768:	00120213          	addi	x4,x4,1 # 1 <begin_signature+0x1>
    376c:	00200293          	addi	x5,x0,2
    3770:	fe5214e3          	bne	x4,x5,3758 <test_47+0x8>

00003774 <test_48>:
    3774:	03000513          	addi	x10,x0,48
    3778:	00000213          	addi	x4,x0,0
    377c:	00000317          	auipc	x6,0x0
    3780:	01430313          	addi	x6,x6,20 # 3790 <test_48+0x1c>
    3784:	00000013          	addi	x0,x0,0
    3788:	000306e7          	jalr	x13,0(x6)
    378c:	04a01ee3          	bne	x0,x10,3fe8 <fail>
    3790:	00120213          	addi	x4,x4,1 # 1 <begin_signature+0x1>
    3794:	00200293          	addi	x5,x0,2
    3798:	fe5212e3          	bne	x4,x5,377c <test_48+0x8>

0000379c <test_49>:
    379c:	03100513          	addi	x10,x0,49
    37a0:	00000213          	addi	x4,x0,0
    37a4:	00000317          	auipc	x6,0x0
    37a8:	01830313          	addi	x6,x6,24 # 37bc <test_49+0x20>
    37ac:	00000013          	addi	x0,x0,0
    37b0:	00000013          	addi	x0,x0,0
    37b4:	000306e7          	jalr	x13,0(x6)
    37b8:	02a018e3          	bne	x0,x10,3fe8 <fail>
    37bc:	00120213          	addi	x4,x4,1 # 1 <begin_signature+0x1>
    37c0:	00200293          	addi	x5,x0,2
    37c4:	fe5210e3          	bne	x4,x5,37a4 <test_49+0x8>

000037c8 <test_50>:
    37c8:	00000213          	addi	x4,x0,0
    37cc:	00d00093          	addi	x1,x0,13
    37d0:	00b00113          	addi	x2,x0,11
    37d4:	00208733          	add	x14,x1,x2
    37d8:	00120213          	addi	x4,x4,1 # 1 <begin_signature+0x1>
    37dc:	00200293          	addi	x5,x0,2
    37e0:	fe5216e3          	bne	x4,x5,37cc <test_50+0x4>
    37e4:	01800393          	addi	x7,x0,24
    37e8:	03200513          	addi	x10,x0,50
    37ec:	7e771e63          	bne	x14,x7,3fe8 <fail>

000037f0 <test_51>:
    37f0:	00000213          	addi	x4,x0,0
    37f4:	00e00093          	addi	x1,x0,14
    37f8:	00b00113          	addi	x2,x0,11
    37fc:	00000013          	addi	x0,x0,0
    3800:	00208733          	add	x14,x1,x2
    3804:	00120213          	addi	x4,x4,1 # 1 <begin_signature+0x1>
    3808:	00200293          	addi	x5,x0,2
    380c:	fe5214e3          	bne	x4,x5,37f4 <test_51+0x4>
    3810:	01900393          	addi	x7,x0,25
    3814:	03300513          	addi	x10,x0,51
    3818:	7c771863          	bne	x14,x7,3fe8 <fail>

0000381c <test_52>:
    381c:	00000213          	addi	x4,x0,0
    3820:	00f00093          	addi	x1,x0,15
    3824:	00b00113          	addi	x2,x0,11
    3828:	00000013          	addi	x0,x0,0
    382c:	00000013          	addi	x0,x0,0
    3830:	00208733          	add	x14,x1,x2
    3834:	00120213          	addi	x4,x4,1 # 1 <begin_signature+0x1>
    3838:	00200293          	addi	x5,x0,2
    383c:	fe5212e3          	bne	x4,x5,3820 <test_52+0x4>
    3840:	01a00393          	addi	x7,x0,26
    3844:	03400513          	addi	x10,x0,52
    3848:	7a771063          	bne	x14,x7,3fe8 <fail>

0000384c <test_53>:
    384c:	00000213          	addi	x4,x0,0
    3850:	00d00093          	addi	x1,x0,13
    3854:	00000013          	addi	x0,x0,0
    3858:	00b00113          	addi	x2,x0,11
    385c:	00208733          	add	x14,x1,x2
    3860:	00120213          	addi	x4,x4,1 # 1 <begin_signature+0x1>
    3864:	00200293          	addi	x5,x0,2
    3868:	fe5214e3          	bne	x4,x5,3850 <test_53+0x4>
    386c:	01800393          	addi	x7,x0,24
    3870:	03500513          	addi	x10,x0,53
    3874:	76771a63          	bne	x14,x7,3fe8 <fail>

00003878 <test_54>:
    3878:	00000213          	addi	x4,x0,0
    387c:	00e00093          	addi	x1,x0,14
    3880:	00000013          	addi	x0,x0,0
    3884:	00b00113          	addi	x2,x0,11
    3888:	00000013          	addi	x0,x0,0
    388c:	00208733          	add	x14,x1,x2
    3890:	00120213          	addi	x4,x4,1 # 1 <begin_signature+0x1>
    3894:	00200293          	addi	x5,x0,2
    3898:	fe5212e3          	bne	x4,x5,387c <test_54+0x4>
    389c:	01900393          	addi	x7,x0,25
    38a0:	03600513          	addi	x10,x0,54
    38a4:	74771263          	bne	x14,x7,3fe8 <fail>

000038a8 <test_55>:
    38a8:	00000213          	addi	x4,x0,0
    38ac:	00f00093          	addi	x1,x0,15
    38b0:	00000013          	addi	x0,x0,0
    38b4:	00000013          	addi	x0,x0,0
    38b8:	00b00113          	addi	x2,x0,11
    38bc:	00208733          	add	x14,x1,x2
    38c0:	00120213          	addi	x4,x4,1 # 1 <begin_signature+0x1>
    38c4:	00200293          	addi	x5,x0,2
    38c8:	fe5212e3          	bne	x4,x5,38ac <test_55+0x4>
    38cc:	01a00393          	addi	x7,x0,26
    38d0:	03700513          	addi	x10,x0,55
    38d4:	70771a63          	bne	x14,x7,3fe8 <fail>

000038d8 <test_56>:
    38d8:	00000213          	addi	x4,x0,0
    38dc:	00b00113          	addi	x2,x0,11
    38e0:	00d00093          	addi	x1,x0,13
    38e4:	00208733          	add	x14,x1,x2
    38e8:	00120213          	addi	x4,x4,1 # 1 <begin_signature+0x1>
    38ec:	00200293          	addi	x5,x0,2
    38f0:	fe5216e3          	bne	x4,x5,38dc <test_56+0x4>
    38f4:	01800393          	addi	x7,x0,24
    38f8:	03800513          	addi	x10,x0,56
    38fc:	6e771663          	bne	x14,x7,3fe8 <fail>

00003900 <test_57>:
    3900:	00000213          	addi	x4,x0,0
    3904:	00b00113          	addi	x2,x0,11
    3908:	00e00093          	addi	x1,x0,14
    390c:	00000013          	addi	x0,x0,0
    3910:	00208733          	add	x14,x1,x2
    3914:	00120213          	addi	x4,x4,1 # 1 <begin_signature+0x1>
    3918:	00200293          	addi	x5,x0,2
    391c:	fe5214e3          	bne	x4,x5,3904 <test_57+0x4>
    3920:	01900393          	addi	x7,x0,25
    3924:	03900513          	addi	x10,x0,57
    3928:	6c771063          	bne	x14,x7,3fe8 <fail>

0000392c <test_58>:
    392c:	00000213          	addi	x4,x0,0
    3930:	00b00113          	addi	x2,x0,11
    3934:	00f00093          	addi	x1,x0,15
    3938:	00000013          	addi	x0,x0,0
    393c:	00000013          	addi	x0,x0,0
    3940:	00208733          	add	x14,x1,x2
    3944:	00120213          	addi	x4,x4,1 # 1 <begin_signature+0x1>
    3948:	00200293          	addi	x5,x0,2
    394c:	fe5212e3          	bne	x4,x5,3930 <test_58+0x4>
    3950:	01a00393          	addi	x7,x0,26
    3954:	03a00513          	addi	x10,x0,58
    3958:	68771863          	bne	x14,x7,3fe8 <fail>

0000395c <test_59>:
    395c:	00000213          	addi	x4,x0,0
    3960:	00b00113          	addi	x2,x0,11
    3964:	00000013          	addi	x0,x0,0
    3968:	00d00093          	addi	x1,x0,13
    396c:	00208733          	add	x14,x1,x2
    3970:	00120213          	addi	x4,x4,1 # 1 <begin_signature+0x1>
    3974:	00200293          	addi	x5,x0,2
    3978:	fe5214e3          	bne	x4,x5,3960 <test_59+0x4>
    397c:	01800393          	addi	x7,x0,24
    3980:	03b00513          	addi	x10,x0,59
    3984:	66771263          	bne	x14,x7,3fe8 <fail>

00003988 <test_60>:
    3988:	00000213          	addi	x4,x0,0
    398c:	00b00113          	addi	x2,x0,11
    3990:	00000013          	addi	x0,x0,0
    3994:	00e00093          	addi	x1,x0,14
    3998:	00000013          	addi	x0,x0,0
    399c:	00208733          	add	x14,x1,x2
    39a0:	00120213          	addi	x4,x4,1 # 1 <begin_signature+0x1>
    39a4:	00200293          	addi	x5,x0,2
    39a8:	fe5212e3          	bne	x4,x5,398c <test_60+0x4>
    39ac:	01900393          	addi	x7,x0,25
    39b0:	03c00513          	addi	x10,x0,60
    39b4:	62771a63          	bne	x14,x7,3fe8 <fail>

000039b8 <test_61>:
    39b8:	00000213          	addi	x4,x0,0
    39bc:	00b00113          	addi	x2,x0,11
    39c0:	00000013          	addi	x0,x0,0
    39c4:	00000013          	addi	x0,x0,0
    39c8:	00f00093          	addi	x1,x0,15
    39cc:	00208733          	add	x14,x1,x2
    39d0:	00120213          	addi	x4,x4,1 # 1 <begin_signature+0x1>
    39d4:	00200293          	addi	x5,x0,2
    39d8:	fe5212e3          	bne	x4,x5,39bc <test_61+0x4>
    39dc:	01a00393          	addi	x7,x0,26
    39e0:	03d00513          	addi	x10,x0,61
    39e4:	60771263          	bne	x14,x7,3fe8 <fail>

000039e8 <test_62>:
    39e8:	00000213          	addi	x4,x0,0
    39ec:	00d00093          	addi	x1,x0,13
    39f0:	00b00113          	addi	x2,x0,11
    39f4:	40208733          	sub	x14,x1,x2
    39f8:	00070313          	addi	x6,x14,0
    39fc:	00120213          	addi	x4,x4,1 # 1 <begin_signature+0x1>
    3a00:	00200293          	addi	x5,x0,2
    3a04:	fe5214e3          	bne	x4,x5,39ec <test_62+0x4>
    3a08:	00200393          	addi	x7,x0,2
    3a0c:	03e00513          	addi	x10,x0,62
    3a10:	5c731c63          	bne	x6,x7,3fe8 <fail>

00003a14 <test_63>:
    3a14:	00000213          	addi	x4,x0,0
    3a18:	00e00093          	addi	x1,x0,14
    3a1c:	00b00113          	addi	x2,x0,11
    3a20:	40208733          	sub	x14,x1,x2
    3a24:	00000013          	addi	x0,x0,0
    3a28:	00070313          	addi	x6,x14,0
    3a2c:	00120213          	addi	x4,x4,1 # 1 <begin_signature+0x1>
    3a30:	00200293          	addi	x5,x0,2
    3a34:	fe5212e3          	bne	x4,x5,3a18 <test_63+0x4>
    3a38:	00300393          	addi	x7,x0,3
    3a3c:	03f00513          	addi	x10,x0,63
    3a40:	5a731463          	bne	x6,x7,3fe8 <fail>

00003a44 <test_64>:
    3a44:	00000213          	addi	x4,x0,0
    3a48:	00f00093          	addi	x1,x0,15
    3a4c:	00b00113          	addi	x2,x0,11
    3a50:	40208733          	sub	x14,x1,x2
    3a54:	00000013          	addi	x0,x0,0
    3a58:	00000013          	addi	x0,x0,0
    3a5c:	00070313          	addi	x6,x14,0
    3a60:	00120213          	addi	x4,x4,1 # 1 <begin_signature+0x1>
    3a64:	00200293          	addi	x5,x0,2
    3a68:	fe5210e3          	bne	x4,x5,3a48 <test_64+0x4>
    3a6c:	00400393          	addi	x7,x0,4
    3a70:	04000513          	addi	x10,x0,64
    3a74:	56731a63          	bne	x6,x7,3fe8 <fail>

00003a78 <test_65>:
    3a78:	00000213          	addi	x4,x0,0
    3a7c:	00d00093          	addi	x1,x0,13
    3a80:	00b00113          	addi	x2,x0,11
    3a84:	40208733          	sub	x14,x1,x2
    3a88:	00120213          	addi	x4,x4,1 # 1 <begin_signature+0x1>
    3a8c:	00200293          	addi	x5,x0,2
    3a90:	fe5216e3          	bne	x4,x5,3a7c <test_65+0x4>
    3a94:	00200393          	addi	x7,x0,2
    3a98:	04100513          	addi	x10,x0,65
    3a9c:	54771663          	bne	x14,x7,3fe8 <fail>

00003aa0 <test_66>:
    3aa0:	00000213          	addi	x4,x0,0
    3aa4:	00e00093          	addi	x1,x0,14
    3aa8:	00b00113          	addi	x2,x0,11
    3aac:	00000013          	addi	x0,x0,0
    3ab0:	40208733          	sub	x14,x1,x2
    3ab4:	00120213          	addi	x4,x4,1 # 1 <begin_signature+0x1>
    3ab8:	00200293          	addi	x5,x0,2
    3abc:	fe5214e3          	bne	x4,x5,3aa4 <test_66+0x4>
    3ac0:	00300393          	addi	x7,x0,3
    3ac4:	04200513          	addi	x10,x0,66
    3ac8:	52771063          	bne	x14,x7,3fe8 <fail>

00003acc <test_67>:
    3acc:	00000213          	addi	x4,x0,0
    3ad0:	00f00093          	addi	x1,x0,15
    3ad4:	00b00113          	addi	x2,x0,11
    3ad8:	00000013          	addi	x0,x0,0
    3adc:	00000013          	addi	x0,x0,0
    3ae0:	40208733          	sub	x14,x1,x2
    3ae4:	00120213          	addi	x4,x4,1 # 1 <begin_signature+0x1>
    3ae8:	00200293          	addi	x5,x0,2
    3aec:	fe5212e3          	bne	x4,x5,3ad0 <test_67+0x4>
    3af0:	00400393          	addi	x7,x0,4
    3af4:	04300513          	addi	x10,x0,67
    3af8:	4e771863          	bne	x14,x7,3fe8 <fail>

00003afc <test_68>:
    3afc:	00000213          	addi	x4,x0,0
    3b00:	00d00093          	addi	x1,x0,13
    3b04:	00000013          	addi	x0,x0,0
    3b08:	00b00113          	addi	x2,x0,11
    3b0c:	40208733          	sub	x14,x1,x2
    3b10:	00120213          	addi	x4,x4,1 # 1 <begin_signature+0x1>
    3b14:	00200293          	addi	x5,x0,2
    3b18:	fe5214e3          	bne	x4,x5,3b00 <test_68+0x4>
    3b1c:	00200393          	addi	x7,x0,2
    3b20:	04400513          	addi	x10,x0,68
    3b24:	4c771263          	bne	x14,x7,3fe8 <fail>

00003b28 <test_69>:
    3b28:	00000213          	addi	x4,x0,0
    3b2c:	00e00093          	addi	x1,x0,14
    3b30:	00000013          	addi	x0,x0,0
    3b34:	00b00113          	addi	x2,x0,11
    3b38:	00000013          	addi	x0,x0,0
    3b3c:	40208733          	sub	x14,x1,x2
    3b40:	00120213          	addi	x4,x4,1 # 1 <begin_signature+0x1>
    3b44:	00200293          	addi	x5,x0,2
    3b48:	fe5212e3          	bne	x4,x5,3b2c <test_69+0x4>
    3b4c:	00300393          	addi	x7,x0,3
    3b50:	04500513          	addi	x10,x0,69
    3b54:	48771a63          	bne	x14,x7,3fe8 <fail>

00003b58 <test_70>:
    3b58:	00000213          	addi	x4,x0,0
    3b5c:	00f00093          	addi	x1,x0,15
    3b60:	00000013          	addi	x0,x0,0
    3b64:	00000013          	addi	x0,x0,0
    3b68:	00b00113          	addi	x2,x0,11
    3b6c:	40208733          	sub	x14,x1,x2
    3b70:	00120213          	addi	x4,x4,1 # 1 <begin_signature+0x1>
    3b74:	00200293          	addi	x5,x0,2
    3b78:	fe5212e3          	bne	x4,x5,3b5c <test_70+0x4>
    3b7c:	00400393          	addi	x7,x0,4
    3b80:	04600513          	addi	x10,x0,70
    3b84:	46771263          	bne	x14,x7,3fe8 <fail>

00003b88 <test_71>:
    3b88:	00000213          	addi	x4,x0,0
    3b8c:	00b00113          	addi	x2,x0,11
    3b90:	00d00093          	addi	x1,x0,13
    3b94:	40208733          	sub	x14,x1,x2
    3b98:	00120213          	addi	x4,x4,1 # 1 <begin_signature+0x1>
    3b9c:	00200293          	addi	x5,x0,2
    3ba0:	fe5216e3          	bne	x4,x5,3b8c <test_71+0x4>
    3ba4:	00200393          	addi	x7,x0,2
    3ba8:	04700513          	addi	x10,x0,71
    3bac:	42771e63          	bne	x14,x7,3fe8 <fail>

00003bb0 <test_72>:
    3bb0:	00000213          	addi	x4,x0,0
    3bb4:	00b00113          	addi	x2,x0,11
    3bb8:	00e00093          	addi	x1,x0,14
    3bbc:	00000013          	addi	x0,x0,0
    3bc0:	40208733          	sub	x14,x1,x2
    3bc4:	00120213          	addi	x4,x4,1 # 1 <begin_signature+0x1>
    3bc8:	00200293          	addi	x5,x0,2
    3bcc:	fe5214e3          	bne	x4,x5,3bb4 <test_72+0x4>
    3bd0:	00300393          	addi	x7,x0,3
    3bd4:	04800513          	addi	x10,x0,72
    3bd8:	40771863          	bne	x14,x7,3fe8 <fail>

00003bdc <test_73>:
    3bdc:	00000213          	addi	x4,x0,0
    3be0:	00b00113          	addi	x2,x0,11
    3be4:	00f00093          	addi	x1,x0,15
    3be8:	00000013          	addi	x0,x0,0
    3bec:	00000013          	addi	x0,x0,0
    3bf0:	40208733          	sub	x14,x1,x2
    3bf4:	00120213          	addi	x4,x4,1 # 1 <begin_signature+0x1>
    3bf8:	00200293          	addi	x5,x0,2
    3bfc:	fe5212e3          	bne	x4,x5,3be0 <test_73+0x4>
    3c00:	00400393          	addi	x7,x0,4
    3c04:	04900513          	addi	x10,x0,73
    3c08:	3e771063          	bne	x14,x7,3fe8 <fail>

00003c0c <test_74>:
    3c0c:	00000213          	addi	x4,x0,0
    3c10:	00b00113          	addi	x2,x0,11
    3c14:	00000013          	addi	x0,x0,0
    3c18:	00d00093          	addi	x1,x0,13
    3c1c:	40208733          	sub	x14,x1,x2
    3c20:	00120213          	addi	x4,x4,1 # 1 <begin_signature+0x1>
    3c24:	00200293          	addi	x5,x0,2
    3c28:	fe5214e3          	bne	x4,x5,3c10 <test_74+0x4>
    3c2c:	00200393          	addi	x7,x0,2
    3c30:	04a00513          	addi	x10,x0,74
    3c34:	3a771a63          	bne	x14,x7,3fe8 <fail>

00003c38 <test_75>:
    3c38:	00000213          	addi	x4,x0,0
    3c3c:	00b00113          	addi	x2,x0,11
    3c40:	00000013          	addi	x0,x0,0
    3c44:	00e00093          	addi	x1,x0,14
    3c48:	00000013          	addi	x0,x0,0
    3c4c:	40208733          	sub	x14,x1,x2
    3c50:	00120213          	addi	x4,x4,1 # 1 <begin_signature+0x1>
    3c54:	00200293          	addi	x5,x0,2
    3c58:	fe5212e3          	bne	x4,x5,3c3c <test_75+0x4>
    3c5c:	00300393          	addi	x7,x0,3
    3c60:	04b00513          	addi	x10,x0,75
    3c64:	38771263          	bne	x14,x7,3fe8 <fail>

00003c68 <test_76>:
    3c68:	00000213          	addi	x4,x0,0
    3c6c:	00b00113          	addi	x2,x0,11
    3c70:	00000013          	addi	x0,x0,0
    3c74:	00000013          	addi	x0,x0,0
    3c78:	00f00093          	addi	x1,x0,15
    3c7c:	40208733          	sub	x14,x1,x2
    3c80:	00120213          	addi	x4,x4,1 # 1 <begin_signature+0x1>
    3c84:	00200293          	addi	x5,x0,2
    3c88:	fe5212e3          	bne	x4,x5,3c6c <test_76+0x4>
    3c8c:	00400393          	addi	x7,x0,4
    3c90:	04c00513          	addi	x10,x0,76
    3c94:	34771a63          	bne	x14,x7,3fe8 <fail>

00003c98 <test_77>:
    3c98:	04d00513          	addi	x10,x0,77
    3c9c:	00000213          	addi	x4,x0,0
    3ca0:	03c00093          	addi	x1,x0,60
    3ca4:	0040a703          	lw	x14,4(x1)
    3ca8:	00070313          	addi	x6,x14,0
    3cac:	01000393          	addi	x7,x0,16
    3cb0:	32731c63          	bne	x6,x7,3fe8 <fail>
    3cb4:	00120213          	addi	x4,x4,1 # 1 <begin_signature+0x1>
    3cb8:	00200293          	addi	x5,x0,2
    3cbc:	fe5212e3          	bne	x4,x5,3ca0 <test_77+0x8>

00003cc0 <test_78>:
    3cc0:	04e00513          	addi	x10,x0,78
    3cc4:	00000213          	addi	x4,x0,0
    3cc8:	04000093          	addi	x1,x0,64
    3ccc:	0040a703          	lw	x14,4(x1)
    3cd0:	00000013          	addi	x0,x0,0
    3cd4:	00070313          	addi	x6,x14,0
    3cd8:	10000393          	addi	x7,x0,256
    3cdc:	30731663          	bne	x6,x7,3fe8 <fail>
    3ce0:	00120213          	addi	x4,x4,1 # 1 <begin_signature+0x1>
    3ce4:	00200293          	addi	x5,x0,2
    3ce8:	fe5210e3          	bne	x4,x5,3cc8 <test_78+0x8>

00003cec <test_79>:
    3cec:	04f00513          	addi	x10,x0,79
    3cf0:	00000213          	addi	x4,x0,0
    3cf4:	03800093          	addi	x1,x0,56
    3cf8:	0040a703          	lw	x14,4(x1)
    3cfc:	00000013          	addi	x0,x0,0
    3d00:	00000013          	addi	x0,x0,0
    3d04:	00070313          	addi	x6,x14,0
    3d08:	00100393          	addi	x7,x0,1
    3d0c:	2c731e63          	bne	x6,x7,3fe8 <fail>
    3d10:	00120213          	addi	x4,x4,1 # 1 <begin_signature+0x1>
    3d14:	00200293          	addi	x5,x0,2
    3d18:	fc521ee3          	bne	x4,x5,3cf4 <test_79+0x8>

00003d1c <test_80>:
    3d1c:	05000513          	addi	x10,x0,80
    3d20:	00000213          	addi	x4,x0,0
    3d24:	03c00093          	addi	x1,x0,60
    3d28:	0040a703          	lw	x14,4(x1)
    3d2c:	01000393          	addi	x7,x0,16
    3d30:	2a771c63          	bne	x14,x7,3fe8 <fail>
    3d34:	00120213          	addi	x4,x4,1 # 1 <begin_signature+0x1>
    3d38:	00200293          	addi	x5,x0,2
    3d3c:	fe5214e3          	bne	x4,x5,3d24 <test_80+0x8>

00003d40 <test_81>:
    3d40:	05100513          	addi	x10,x0,81
    3d44:	00000213          	addi	x4,x0,0
    3d48:	04000093          	addi	x1,x0,64
    3d4c:	00000013          	addi	x0,x0,0
    3d50:	0040a703          	lw	x14,4(x1)
    3d54:	10000393          	addi	x7,x0,256
    3d58:	28771863          	bne	x14,x7,3fe8 <fail>
    3d5c:	00120213          	addi	x4,x4,1 # 1 <begin_signature+0x1>
    3d60:	00200293          	addi	x5,x0,2
    3d64:	fe5212e3          	bne	x4,x5,3d48 <test_81+0x8>

00003d68 <test_82>:
    3d68:	05200513          	addi	x10,x0,82
    3d6c:	00000213          	addi	x4,x0,0
    3d70:	03800093          	addi	x1,x0,56
    3d74:	00000013          	addi	x0,x0,0
    3d78:	00000013          	addi	x0,x0,0
    3d7c:	0040a703          	lw	x14,4(x1)
    3d80:	00100393          	addi	x7,x0,1
    3d84:	26771263          	bne	x14,x7,3fe8 <fail>
    3d88:	00120213          	addi	x4,x4,1 # 1 <begin_signature+0x1>
    3d8c:	00200293          	addi	x5,x0,2
    3d90:	fe5210e3          	bne	x4,x5,3d70 <test_82+0x8>

00003d94 <test_83>:
    3d94:	05300513          	addi	x10,x0,83
    3d98:	00000213          	addi	x4,x0,0
    3d9c:	00000093          	addi	x1,x0,0
    3da0:	01000113          	addi	x2,x0,16
    3da4:	00112023          	sw	x1,0(x2)
    3da8:	00012703          	lw	x14,0(x2)
    3dac:	00000393          	addi	x7,x0,0
    3db0:	22771c63          	bne	x14,x7,3fe8 <fail>
    3db4:	00120213          	addi	x4,x4,1 # 1 <begin_signature+0x1>
    3db8:	00200293          	addi	x5,x0,2
    3dbc:	fe5210e3          	bne	x4,x5,3d9c <test_83+0x8>

00003dc0 <test_84>:
    3dc0:	05400513          	addi	x10,x0,84
    3dc4:	00000213          	addi	x4,x0,0
    3dc8:	00400093          	addi	x1,x0,4
    3dcc:	01000113          	addi	x2,x0,16
    3dd0:	00000013          	addi	x0,x0,0
    3dd4:	00112223          	sw	x1,4(x2)
    3dd8:	00412703          	lw	x14,4(x2)
    3ddc:	00400393          	addi	x7,x0,4
    3de0:	20771463          	bne	x14,x7,3fe8 <fail>
    3de4:	00120213          	addi	x4,x4,1 # 1 <begin_signature+0x1>
    3de8:	00200293          	addi	x5,x0,2
    3dec:	fc521ee3          	bne	x4,x5,3dc8 <test_84+0x8>

00003df0 <test_85>:
    3df0:	05500513          	addi	x10,x0,85
    3df4:	00000213          	addi	x4,x0,0
    3df8:	00800093          	addi	x1,x0,8
    3dfc:	01000113          	addi	x2,x0,16
    3e00:	00000013          	addi	x0,x0,0
    3e04:	00000013          	addi	x0,x0,0
    3e08:	00112423          	sw	x1,8(x2)
    3e0c:	00812703          	lw	x14,8(x2)
    3e10:	00800393          	addi	x7,x0,8
    3e14:	1c771a63          	bne	x14,x7,3fe8 <fail>
    3e18:	00120213          	addi	x4,x4,1 # 1 <begin_signature+0x1>
    3e1c:	00200293          	addi	x5,x0,2
    3e20:	fc521ce3          	bne	x4,x5,3df8 <test_85+0x8>

00003e24 <test_86>:
    3e24:	05600513          	addi	x10,x0,86
    3e28:	00000213          	addi	x4,x0,0
    3e2c:	00c00093          	addi	x1,x0,12
    3e30:	00000013          	addi	x0,x0,0
    3e34:	01000113          	addi	x2,x0,16
    3e38:	00112623          	sw	x1,12(x2)
    3e3c:	00c12703          	lw	x14,12(x2)
    3e40:	00c00393          	addi	x7,x0,12
    3e44:	1a771263          	bne	x14,x7,3fe8 <fail>
    3e48:	00120213          	addi	x4,x4,1 # 1 <begin_signature+0x1>
    3e4c:	00200293          	addi	x5,x0,2
    3e50:	fc521ee3          	bne	x4,x5,3e2c <test_86+0x8>

00003e54 <test_87>:
    3e54:	05700513          	addi	x10,x0,87
    3e58:	00000213          	addi	x4,x0,0
    3e5c:	01000093          	addi	x1,x0,16
    3e60:	00000013          	addi	x0,x0,0
    3e64:	01000113          	addi	x2,x0,16
    3e68:	00000013          	addi	x0,x0,0
    3e6c:	00112823          	sw	x1,16(x2)
    3e70:	01012703          	lw	x14,16(x2)
    3e74:	01000393          	addi	x7,x0,16
    3e78:	16771863          	bne	x14,x7,3fe8 <fail>
    3e7c:	00120213          	addi	x4,x4,1 # 1 <begin_signature+0x1>
    3e80:	00200293          	addi	x5,x0,2
    3e84:	fc521ce3          	bne	x4,x5,3e5c <test_87+0x8>

00003e88 <test_88>:
    3e88:	05800513          	addi	x10,x0,88
    3e8c:	00000213          	addi	x4,x0,0
    3e90:	01400093          	addi	x1,x0,20
    3e94:	00000013          	addi	x0,x0,0
    3e98:	00000013          	addi	x0,x0,0
    3e9c:	01000113          	addi	x2,x0,16
    3ea0:	00112a23          	sw	x1,20(x2)
    3ea4:	01412703          	lw	x14,20(x2)
    3ea8:	01400393          	addi	x7,x0,20
    3eac:	12771e63          	bne	x14,x7,3fe8 <fail>
    3eb0:	00120213          	addi	x4,x4,1 # 1 <begin_signature+0x1>
    3eb4:	00200293          	addi	x5,x0,2
    3eb8:	fc521ce3          	bne	x4,x5,3e90 <test_88+0x8>

00003ebc <test_89>:
    3ebc:	05900513          	addi	x10,x0,89
    3ec0:	00000213          	addi	x4,x0,0
    3ec4:	01000113          	addi	x2,x0,16
    3ec8:	70000093          	addi	x1,x0,1792
    3ecc:	00112023          	sw	x1,0(x2)
    3ed0:	00012703          	lw	x14,0(x2)
    3ed4:	70000393          	addi	x7,x0,1792
    3ed8:	10771863          	bne	x14,x7,3fe8 <fail>
    3edc:	00120213          	addi	x4,x4,1 # 1 <begin_signature+0x1>
    3ee0:	00200293          	addi	x5,x0,2
    3ee4:	fe5210e3          	bne	x4,x5,3ec4 <test_89+0x8>

00003ee8 <test_90>:
    3ee8:	05a00513          	addi	x10,x0,90
    3eec:	00000213          	addi	x4,x0,0
    3ef0:	01000113          	addi	x2,x0,16
    3ef4:	70400093          	addi	x1,x0,1796
    3ef8:	00000013          	addi	x0,x0,0
    3efc:	00112223          	sw	x1,4(x2)
    3f00:	00412703          	lw	x14,4(x2)
    3f04:	70400393          	addi	x7,x0,1796
    3f08:	0e771063          	bne	x14,x7,3fe8 <fail>
    3f0c:	00120213          	addi	x4,x4,1 # 1 <begin_signature+0x1>
    3f10:	00200293          	addi	x5,x0,2
    3f14:	fc521ee3          	bne	x4,x5,3ef0 <test_90+0x8>

00003f18 <test_91>:
    3f18:	05b00513          	addi	x10,x0,91
    3f1c:	00000213          	addi	x4,x0,0
    3f20:	01000113          	addi	x2,x0,16
    3f24:	70800093          	addi	x1,x0,1800
    3f28:	00000013          	addi	x0,x0,0
    3f2c:	00000013          	addi	x0,x0,0
    3f30:	00112423          	sw	x1,8(x2)
    3f34:	00812703          	lw	x14,8(x2)
    3f38:	70800393          	addi	x7,x0,1800
    3f3c:	0a771663          	bne	x14,x7,3fe8 <fail>
    3f40:	00120213          	addi	x4,x4,1 # 1 <begin_signature+0x1>
    3f44:	00200293          	addi	x5,x0,2
    3f48:	fc521ce3          	bne	x4,x5,3f20 <test_91+0x8>

00003f4c <test_92>:
    3f4c:	05c00513          	addi	x10,x0,92
    3f50:	00000213          	addi	x4,x0,0
    3f54:	01000113          	addi	x2,x0,16
    3f58:	00000013          	addi	x0,x0,0
    3f5c:	70c00093          	addi	x1,x0,1804
    3f60:	00112623          	sw	x1,12(x2)
    3f64:	00c12703          	lw	x14,12(x2)
    3f68:	70c00393          	addi	x7,x0,1804
    3f6c:	06771e63          	bne	x14,x7,3fe8 <fail>
    3f70:	00120213          	addi	x4,x4,1 # 1 <begin_signature+0x1>
    3f74:	00200293          	addi	x5,x0,2
    3f78:	fc521ee3          	bne	x4,x5,3f54 <test_92+0x8>

00003f7c <test_93>:
    3f7c:	05d00513          	addi	x10,x0,93
    3f80:	00000213          	addi	x4,x0,0
    3f84:	01000113          	addi	x2,x0,16
    3f88:	00000013          	addi	x0,x0,0
    3f8c:	71000093          	addi	x1,x0,1808
    3f90:	00000013          	addi	x0,x0,0
    3f94:	00112823          	sw	x1,16(x2)
    3f98:	01012703          	lw	x14,16(x2)
    3f9c:	71000393          	addi	x7,x0,1808
    3fa0:	04771463          	bne	x14,x7,3fe8 <fail>
    3fa4:	00120213          	addi	x4,x4,1 # 1 <begin_signature+0x1>
    3fa8:	00200293          	addi	x5,x0,2
    3fac:	fc521ce3          	bne	x4,x5,3f84 <test_93+0x8>

00003fb0 <test_94>:
    3fb0:	05e00513          	addi	x10,x0,94
    3fb4:	00000213          	addi	x4,x0,0
    3fb8:	01000113          	addi	x2,x0,16
    3fbc:	00000013          	addi	x0,x0,0
    3fc0:	00000013          	addi	x0,x0,0
    3fc4:	71400093          	addi	x1,x0,1812
    3fc8:	00112a23          	sw	x1,20(x2)
    3fcc:	01412703          	lw	x14,20(x2)
    3fd0:	71400393          	addi	x7,x0,1812
    3fd4:	00771a63          	bne	x14,x7,3fe8 <fail>
    3fd8:	00120213          	addi	x4,x4,1 # 1 <begin_signature+0x1>
    3fdc:	00200293          	addi	x5,x0,2
    3fe0:	fc521ce3          	bne	x4,x5,3fb8 <test_94+0x8>
    3fe4:	00a01863          	bne	x0,x10,3ff4 <pass>

00003fe8 <fail>:
    3fe8:	00000513          	addi	x10,x0,0
    3fec:	00100593          	addi	x11,x0,1
    3ff0:	00008067          	jalr	x0,0(x1)

00003ff4 <pass>:
    3ff4:	00100513          	addi	x10,x0,1
    3ff8:	00100593          	addi	x11,x0,1
    3ffc:	00008067          	jalr	x0,0(x1)

00004000 <_end>:
    4000:	00000013          	addi	x0,x0,0
